target datalayout = "e-m:e-p270:32:32-p271:32:32-p272:64:64-i64:64-i128:128-f80:128-n8:16:32:64-S128"
target triple = "x86_64-pc-linux-gnu"

%struct.rb_data_type_struct = type { ptr, %struct.anon, ptr, ptr, i64 }
%struct.anon = type { ptr, ptr, ptr, ptr, [1 x ptr] }
%struct.RTypedData = type { %struct.RBasic, ptr, i64, ptr }
%struct.RBasic = type { i64, i64 }

@ossl_evp_pkey_type = constant %struct.rb_data_type_struct { ptr @.str, %struct.anon { ptr null, ptr @ossl_evp_pkey_free, ptr null, ptr null, [1 x ptr] zeroinitializer }, ptr null, ptr null, i64 33 }, align 8
@ePKeyError = global i64 0, align 8
@rb_eTypeError = external global i64, align 8
@.str.55 = private unnamed_addr constant [25 x i8] c"pkey already initialized\00", align 1
@.str.56 = private unnamed_addr constant [13 x i8] c"EVP_PKEY_dup\00", align 1

; Function Attrs: nounwind sspstrong uwtable
define internal i64 @ossl_pkey_initialize_copy(i64 noundef %0, i64 noundef %1) #0 {
  %3 = alloca i64, align 8
  %4 = alloca i64, align 8
  %5 = alloca ptr, align 8
  %6 = alloca ptr, align 8
  store i64 %0, ptr %3, align 8, !tbaa !12
  store i64 %1, ptr %4, align 8, !tbaa !12
  call void @llvm.lifetime.start.p0(i64 8, ptr %5) #19
  call void @llvm.lifetime.start.p0(i64 8, ptr %6) #19
  %7 = load i64, ptr %3, align 8, !tbaa !12
  %8 = call ptr @rb_check_typeddata(i64 noundef %7, ptr noundef @ossl_evp_pkey_type)
  store ptr %8, ptr %5, align 8, !tbaa !10
  %9 = load i64, ptr %4, align 8, !tbaa !12
  %10 = call ptr @rb_check_typeddata(i64 noundef %9, ptr noundef @ossl_evp_pkey_type)
  store ptr %10, ptr %6, align 8, !tbaa !10
  %11 = load ptr, ptr %5, align 8, !tbaa !10
  %12 = icmp ne ptr %11, null
  br i1 %12, label %13, label %15

13:                                               ; preds = %2
  %14 = load i64, ptr @rb_eTypeError, align 8, !tbaa !12
  call void (i64, ptr, ...) @rb_raise(i64 noundef %14, ptr noundef @.str.55) #20
  unreachable

15:                                               ; preds = %2
  %16 = load ptr, ptr %6, align 8, !tbaa !10
  %17 = icmp ne ptr %16, null
  br i1 %17, label %18, label %30

18:                                               ; preds = %15
  %19 = load ptr, ptr %6, align 8, !tbaa !10
  %20 = call ptr @EVP_PKEY_dup(ptr noundef %19)
  store ptr %20, ptr %5, align 8, !tbaa !10
  %21 = load ptr, ptr %5, align 8, !tbaa !10
  %22 = icmp ne ptr %21, null
  br i1 %22, label %25, label %23

23:                                               ; preds = %18
  %24 = load i64, ptr @ePKeyError, align 8, !tbaa !12
  call void (i64, ptr, ...) @ossl_raise(i64 noundef %24, ptr noundef @.str.56) #20
  unreachable

25:                                               ; preds = %18
  %26 = load ptr, ptr %5, align 8, !tbaa !10
  %27 = load i64, ptr %3, align 8, !tbaa !12
  %28 = inttoptr i64 %27 to ptr
  %29 = getelementptr inbounds nuw %struct.RTypedData, ptr %28, i32 0, i32 3
  store ptr %26, ptr %29, align 8, !tbaa !16
  br label %30

30:                                               ; preds = %25, %15
  %31 = load i64, ptr %3, align 8, !tbaa !12
  call void @llvm.lifetime.end.p0(i64 8, ptr %6) #19
  call void @llvm.lifetime.end.p0(i64 8, ptr %5) #19
  ret i64 %31
}