; Function Attrs: nounwind sspstrong uwtable
define internal noundef i64 @ossl_pkey_initialize_copy(i64 noundef returned %0, i64 noundef %1) #0 {
  %3 = tail call ptr @rb_check_typeddata(i64 noundef %0, ptr noundef nonnull @ossl_evp_pkey_type) #8
  %4 = tail call ptr @rb_check_typeddata(i64 noundef %1, ptr noundef nonnull @ossl_evp_pkey_type) #8
  %.not = icmp eq ptr %3, null
  br i1 %.not, label %7, label %5

5:                                                ; preds = %2
  %6 = load i64, ptr @rb_eTypeError, align 8, !tbaa !10
  tail call void (i64, ptr, ...) @rb_raise(i64 noundef %6, ptr noundef nonnull @.str.55) #9
  unreachable

7:                                                ; preds = %2
  %.not9 = icmp eq ptr %4, null
  br i1 %.not9, label %15, label %8

8:                                                ; preds = %7
  %9 = tail call ptr @EVP_PKEY_dup(ptr noundef nonnull %4) #8
  %.not10 = icmp eq ptr %9, null
  br i1 %.not10, label %10, label %12

10:                                               ; preds = %8
  %11 = load i64, ptr @ePKeyError, align 8, !tbaa !10
  tail call void (i64, ptr, ...) @ossl_raise(i64 noundef %11, ptr noundef nonnull @.str.56) #9
  unreachable

12:                                               ; preds = %8
  %13 = inttoptr i64 %0 to ptr
  %14 = getelementptr inbounds nuw i8, ptr %13, i64 32
  store ptr %9, ptr %14, align 8, !tbaa !12
  br label %15

15:                                               ; preds = %12, %7
  ret i64 %0
}